target datalayout = "e-m:e-p270:32:32-p271:32:32-p272:64:64-i64:64-i128:128-f80:128-n8:16:32:64-S128"
target triple = "x86_64-pc-linux-gnu"

%"class.llvm::StringRef" = type { ptr, i64 }
%"class.std::optional" = type { %"struct.std::_Optional_base" }
%"struct.std::_Optional_base" = type { %"struct.std::_Optional_payload" }
%"struct.std::_Optional_payload" = type { %"struct.std::_Optional_payload_base.base", [3 x i8] }
%"struct.std::_Optional_payload_base.base" = type { %"union.std::_Optional_payload_base<llvm::ElementCount>::_Storage", i8 }
%"union.std::_Optional_payload_base<llvm::ElementCount>::_Storage" = type { %"class.llvm::ElementCount" }
%"class.llvm::ElementCount" = type { %"class.llvm::details::FixedOrScalableQuantity.base", [3 x i8] }
%"class.llvm::details::FixedOrScalableQuantity.base" = type <{ i32, i8 }>
%"class.std::optional.50" = type { %"struct.std::_Optional_base.51" }
%"struct.std::_Optional_base.51" = type { %"struct.std::_Optional_payload.53" }
%"struct.std::_Optional_payload.53" = type { %"struct.std::_Optional_payload_base.base.55", [3 x i8] }
%"struct.std::_Optional_payload_base.base.55" = type <{ %"union.std::_Optional_payload_base<int>::_Storage", i8 }>
%"union.std::_Optional_payload_base<int>::_Storage" = type { i32 }
%"struct.std::_Optional_payload_base.54" = type <{ %"union.std::_Optional_payload_base<int>::_Storage", i8, [3 x i8] }>
%"class.llvm::details::FixedOrScalableQuantity" = type <{ i32, i8, [3 x i8] }>
%"struct.std::_Optional_payload_base" = type { %"union.std::_Optional_payload_base<llvm::ElementCount>::_Storage", i8, [3 x i8] }

@.str = private unnamed_addr constant [26 x i8] c"llvm.loop.vectorize.width\00", align 1
@.str.1 = private unnamed_addr constant [36 x i8] c"llvm.loop.vectorize.scalable.enable\00", align 1

; Function Attrs: mustprogress nounwind uwtable
define linkonce_odr hidden void @_ZNSt22_Optional_payload_baseIN4llvm12ElementCountEE8_StorageIS1_Lb1EEC2Ev(ptr noundef nonnull align 4 dereferenceable(8) %0) unnamed_addr #0 comdat align 2 {
  %2 = alloca ptr, align 8
  store ptr %0, ptr %2, align 8
  ret void
}

; Function Attrs: mustprogress nounwind uwtable
define linkonce_odr hidden void @_ZNSt22_Optional_payload_baseIN4llvm12ElementCountEE8_StorageIS1_Lb1EEC2IJS1_EEESt10in_place_tDpOT_(ptr noundef nonnull align 4 dereferenceable(8) %0, ptr noundef nonnull align 4 dereferenceable(5) %1) unnamed_addr #0 comdat align 2 {
  %3 = alloca ptr, align 8
  %4 = alloca ptr, align 8
  store ptr %0, ptr %3, align 8
  store ptr %1, ptr %4, align 8
  %5 = load ptr, ptr %3, align 8
  %6 = load ptr, ptr %4, align 8
  call void @llvm.memcpy.p0.p0.i64(ptr align 4 %5, ptr align 4 %6, i64 8, i1 false)
  ret void
}

; Function Attrs: mustprogress nounwind uwtable
define linkonce_odr hidden void @_ZNSt22_Optional_payload_baseIN4llvm12ElementCountEEC2Ev(ptr noundef nonnull align 4 dereferenceable(9) %0) unnamed_addr #0 comdat align 2 {
  %2 = alloca ptr, align 8
  store ptr %0, ptr %2, align 8
  %3 = load ptr, ptr %2, align 8
  %4 = getelementptr inbounds nuw %"struct.std::_Optional_payload_base", ptr %3, i32 0, i32 0
  call void @_ZNSt22_Optional_payload_baseIN4llvm12ElementCountEE8_StorageIS1_Lb1EEC2Ev(ptr noundef nonnull align 4 dereferenceable(8) %4) #12
  %5 = getelementptr inbounds nuw %"struct.std::_Optional_payload_base", ptr %3, i32 0, i32 1
  store i8 0, ptr %5, align 4
  ret void
}

; Function Attrs: mustprogress nounwind uwtable
define linkonce_odr hidden void @_ZNSt22_Optional_payload_baseIN4llvm12ElementCountEEC2IJS1_EEESt10in_place_tDpOT_(ptr noundef nonnull align 4 dereferenceable(9) %0, ptr noundef nonnull align 4 dereferenceable(5) %1) unnamed_addr #0 comdat align 2 {
  %3 = alloca ptr, align 8
  %4 = alloca ptr, align 8
  store ptr %0, ptr %3, align 8
  store ptr %1, ptr %4, align 8
  %5 = load ptr, ptr %3, align 8
  %6 = getelementptr inbounds nuw %"struct.std::_Optional_payload_base", ptr %5, i32 0, i32 0
  %7 = load ptr, ptr %4, align 8
  call void @_ZNSt22_Optional_payload_baseIN4llvm12ElementCountEE8_StorageIS1_Lb1EEC2IJS1_EEESt10in_place_tDpOT_(ptr noundef nonnull align 4 dereferenceable(8) %6, ptr noundef nonnull align 4 dereferenceable(5) %7)
  %8 = getelementptr inbounds nuw %"struct.std::_Optional_payload_base", ptr %5, i32 0, i32 1
  store i8 1, ptr %8, align 4
  ret void
}

; Function Attrs: mustprogress nounwind uwtable
define linkonce_odr hidden void @_ZNSt17_Optional_payloadIN4llvm12ElementCountELb1ELb1ELb1EEC2Ev(ptr noundef nonnull align 4 dereferenceable(9) %0) unnamed_addr #0 comdat align 2 {
  %2 = alloca ptr, align 8
  store ptr %0, ptr %2, align 8
  %3 = load ptr, ptr %2, align 8
  call void @_ZNSt22_Optional_payload_baseIN4llvm12ElementCountEEC2Ev(ptr noundef nonnull align 4 dereferenceable(9) %3) #12
  ret void
}

; Function Attrs: mustprogress nounwind uwtable
define linkonce_odr hidden void @_ZNSt17_Optional_payloadIN4llvm12ElementCountELb1ELb1ELb1EECI2St22_Optional_payload_baseIS1_EIJS1_EEESt10in_place_tDpOT_(ptr noundef nonnull align 4 dereferenceable(9) %0, ptr noundef nonnull align 4 dereferenceable(5) %1) unnamed_addr #0 comdat align 2 {
  %3 = alloca ptr, align 8
  %4 = alloca ptr, align 8
  store ptr %0, ptr %3, align 8
  store ptr %1, ptr %4, align 8
  %5 = load ptr, ptr %3, align 8
  %6 = load ptr, ptr %4, align 8
  call void @_ZNSt22_Optional_payload_baseIN4llvm12ElementCountEEC2IJS1_EEESt10in_place_tDpOT_(ptr noundef nonnull align 4 dereferenceable(9) %5, ptr noundef nonnull align 4 dereferenceable(5) %6)
  ret void
}

; Function Attrs: mustprogress nounwind uwtable
define linkonce_odr hidden void @_ZN4llvm7details23FixedOrScalableQuantityINS_12ElementCountEjEC2Ejb(ptr noundef nonnull align 4 dereferenceable(5) %0, i32 noundef %1, i1 noundef zeroext %2) unnamed_addr #0 comdat align 2 {
  %4 = alloca ptr, align 8
  %5 = alloca i32, align 4
  %6 = alloca i8, align 1
  store ptr %0, ptr %4, align 8
  store i32 %1, ptr %5, align 4
  %7 = zext i1 %2 to i8
  store i8 %7, ptr %6, align 1
  %8 = load ptr, ptr %4, align 8
  %9 = getelementptr inbounds nuw %"class.llvm::details::FixedOrScalableQuantity", ptr %8, i32 0, i32 0
  %10 = load i32, ptr %5, align 4
  store i32 %10, ptr %9, align 4
  %11 = getelementptr inbounds nuw %"class.llvm::details::FixedOrScalableQuantity", ptr %8, i32 0, i32 1
  %12 = load i8, ptr %6, align 1
  %13 = trunc i8 %12 to i1
  %14 = zext i1 %13 to i8
  store i8 %14, ptr %11, align 4
  ret void
}

; Function Attrs: mustprogress nounwind uwtable
define linkonce_odr hidden noundef nonnull align 4 dereferenceable(4) ptr @_ZNKSt22_Optional_payload_baseIiE6_M_getEv(ptr noundef nonnull align 4 dereferenceable(5) %0) #0 comdat align 2 {
  %2 = alloca ptr, align 8
  store ptr %0, ptr %2, align 8
  %3 = load ptr, ptr %2, align 8
  %4 = getelementptr inbounds nuw %"struct.std::_Optional_payload_base.54", ptr %3, i32 0, i32 0
  ret ptr %4
}

; Function Attrs: mustprogress nounwind uwtable
define linkonce_odr hidden noundef nonnull align 4 dereferenceable(4) ptr @_ZNSt22_Optional_payload_baseIiE6_M_getEv(ptr noundef nonnull align 4 dereferenceable(5) %0) #0 comdat align 2 {
  %2 = alloca ptr, align 8
  store ptr %0, ptr %2, align 8
  %3 = load ptr, ptr %2, align 8
  %4 = getelementptr inbounds nuw %"struct.std::_Optional_payload_base.54", ptr %3, i32 0, i32 0
  ret ptr %4
}

; Function Attrs: mustprogress nounwind uwtable
define linkonce_odr hidden void @_ZNSt14_Optional_baseIN4llvm12ElementCountELb1ELb1EEC2Ev(ptr noundef nonnull align 4 dereferenceable(12) %0) unnamed_addr #0 comdat align 2 {
  %2 = alloca ptr, align 8
  store ptr %0, ptr %2, align 8
  %3 = load ptr, ptr %2, align 8
  %4 = getelementptr inbounds nuw %"struct.std::_Optional_base", ptr %3, i32 0, i32 0
  call void @_ZNSt17_Optional_payloadIN4llvm12ElementCountELb1ELb1ELb1EEC2Ev(ptr noundef nonnull align 4 dereferenceable(9) %4) #12
  ret void
}

; Function Attrs: mustprogress nounwind uwtable
define linkonce_odr hidden void @_ZNSt14_Optional_baseIN4llvm12ElementCountELb1ELb1EEC2IJS1_ETnNSt9enable_ifIX18is_constructible_vIS1_DpT_EEbE4typeELb0EEESt10in_place_tDpOS5_(ptr noundef nonnull align 4 dereferenceable(12) %0, ptr noundef nonnull align 4 dereferenceable(5) %1) unnamed_addr #0 comdat align 2 {
  %3 = alloca ptr, align 8
  %4 = alloca ptr, align 8
  store ptr %0, ptr %3, align 8
  store ptr %1, ptr %4, align 8
  %5 = load ptr, ptr %3, align 8
  %6 = getelementptr inbounds nuw %"struct.std::_Optional_base", ptr %5, i32 0, i32 0
  %7 = load ptr, ptr %4, align 8
  call void @_ZNSt17_Optional_payloadIN4llvm12ElementCountELb1ELb1ELb1EECI2St22_Optional_payload_baseIS1_EIJS1_EEESt10in_place_tDpOT_(ptr noundef nonnull align 4 dereferenceable(9) %6, ptr noundef nonnull align 4 dereferenceable(5) %7)
  ret void
}

; Function Attrs: mustprogress nounwind uwtable
define linkonce_odr hidden void @_ZN4llvm12ElementCountC2Ejb(ptr noundef nonnull align 4 dereferenceable(5) %0, i32 noundef %1, i1 noundef zeroext %2) unnamed_addr #0 comdat align 2 {
  %4 = alloca ptr, align 8
  %5 = alloca i32, align 4
  %6 = alloca i8, align 1
  store ptr %0, ptr %4, align 8
  store i32 %1, ptr %5, align 4
  %7 = zext i1 %2 to i8
  store i8 %7, ptr %6, align 1
  %8 = load ptr, ptr %4, align 8
  %9 = load i32, ptr %5, align 4
  %10 = load i8, ptr %6, align 1
  %11 = trunc i8 %10 to i1
  call void @_ZN4llvm7details23FixedOrScalableQuantityINS_12ElementCountEjEC2Ejb(ptr noundef nonnull align 4 dereferenceable(5) %8, i32 noundef %9, i1 noundef zeroext %11)
  ret void
}

; Function Attrs: mustprogress nounwind uwtable
define linkonce_odr hidden noundef nonnull align 4 dereferenceable(4) ptr @_ZNKSt19_Optional_base_implIiSt14_Optional_baseIiLb1ELb1EEE6_M_getEv(ptr noundef nonnull align 1 dereferenceable(1) %0) #0 comdat align 2 {
  %2 = alloca ptr, align 8
  store ptr %0, ptr %2, align 8
  %3 = load ptr, ptr %2, align 8
  br label %4

4:                                                ; preds = %1
  br label %5

5:                                                ; preds = %4
  %6 = getelementptr inbounds nuw %"struct.std::_Optional_base.51", ptr %3, i32 0, i32 0
  %7 = call noundef nonnull align 4 dereferenceable(4) ptr @_ZNKSt22_Optional_payload_baseIiE6_M_getEv(ptr noundef nonnull align 4 dereferenceable(5) %6) #12
  ret ptr %7
}

; Function Attrs: mustprogress nounwind uwtable
define linkonce_odr hidden noundef nonnull align 4 dereferenceable(4) ptr @_ZNSt19_Optional_base_implIiSt14_Optional_baseIiLb1ELb1EEE6_M_getEv(ptr noundef nonnull align 1 dereferenceable(1) %0) #0 comdat align 2 {
  %2 = alloca ptr, align 8
  store ptr %0, ptr %2, align 8
  %3 = load ptr, ptr %2, align 8
  br label %4

4:                                                ; preds = %1
  br label %5

5:                                                ; preds = %4
  %6 = getelementptr inbounds nuw %"struct.std::_Optional_base.51", ptr %3, i32 0, i32 0
  %7 = call noundef nonnull align 4 dereferenceable(4) ptr @_ZNSt22_Optional_payload_baseIiE6_M_getEv(ptr noundef nonnull align 4 dereferenceable(5) %6) #12
  ret ptr %7
}

; Function Attrs: mustprogress nounwind uwtable
define linkonce_odr hidden noundef zeroext i1 @_ZNKSt19_Optional_base_implIiSt14_Optional_baseIiLb1ELb1EEE13_M_is_engagedEv(ptr noundef nonnull align 1 dereferenceable(1) %0) #0 comdat align 2 {
  %2 = alloca ptr, align 8
  store ptr %0, ptr %2, align 8
  %3 = load ptr, ptr %2, align 8
  %4 = getelementptr inbounds nuw %"struct.std::_Optional_base.51", ptr %3, i32 0, i32 0
  %5 = getelementptr inbounds nuw %"struct.std::_Optional_payload_base.54", ptr %4, i32 0, i32 1
  %6 = load i8, ptr %5, align 4
  %7 = trunc i8 %6 to i1
  ret i1 %7
}

; Function Attrs: mustprogress nounwind uwtable
define linkonce_odr hidden noundef i64 @_ZNSt11char_traitsIcE6lengthEPKc(ptr noundef %0) #0 comdat align 2 {
  %2 = alloca ptr, align 8
  store ptr %0, ptr %2, align 8
  %3 = load ptr, ptr %2, align 8
  %4 = call i64 @strlen(ptr noundef %3) #12
  ret i64 %4
}

; Function Attrs: mustprogress nounwind uwtable
define linkonce_odr hidden void @_ZNSt8optionalIN4llvm12ElementCountEEC2ESt9nullopt_t(ptr noundef nonnull align 4 dereferenceable(12) %0) unnamed_addr #0 comdat align 2 {
  %2 = alloca ptr, align 8
  store ptr %0, ptr %2, align 8
  %3 = load ptr, ptr %2, align 8
  call void @_ZNSt14_Optional_baseIN4llvm12ElementCountELb1ELb1EEC2Ev(ptr noundef nonnull align 4 dereferenceable(12) %3) #12
  ret void
}

; Function Attrs: mustprogress nounwind uwtable
define linkonce_odr hidden void @_ZNSt8optionalIN4llvm12ElementCountEEC2IS1_TnNSt9enable_ifIX7__and_vISt6__not_ISt7is_sameIS2_NSt9remove_cvINSt16remove_referenceIT_E4typeEE4typeEEES5_IS6_ISt10in_place_tSD_EESt16is_constructibleIS1_JS9_EESt14is_convertibleIS9_S1_EEEbE4typeELb1EEEOS9_(ptr noundef nonnull align 4 dereferenceable(12) %0, ptr noundef nonnull align 4 dereferenceable(5) %1) unnamed_addr #0 comdat align 2 {
  %3 = alloca ptr, align 8
  %4 = alloca ptr, align 8
  store ptr %0, ptr %3, align 8
  store ptr %1, ptr %4, align 8
  %5 = load ptr, ptr %3, align 8
  %6 = load ptr, ptr %4, align 8
  call void @_ZNSt14_Optional_baseIN4llvm12ElementCountELb1ELb1EEC2IJS1_ETnNSt9enable_ifIX18is_constructible_vIS1_DpT_EEbE4typeELb0EEESt10in_place_tDpOS5_(ptr noundef nonnull align 4 dereferenceable(12) %5, ptr noundef nonnull align 4 dereferenceable(5) %6)
  ret void
}

; Function Attrs: mustprogress nounwind uwtable
define linkonce_odr hidden i64 @_ZN4llvm12ElementCount3getEjb(i32 noundef %0, i1 noundef zeroext %1) #0 comdat align 2 {
  %3 = alloca %"class.llvm::ElementCount", align 4
  %4 = alloca i32, align 4
  %5 = alloca i8, align 1
  store i32 %0, ptr %4, align 4
  %6 = zext i1 %1 to i8
  store i8 %6, ptr %5, align 1
  %7 = load i32, ptr %4, align 4
  %8 = load i8, ptr %5, align 1
  %9 = trunc i8 %8 to i1
  call void @_ZN4llvm12ElementCountC2Ejb(ptr noundef nonnull align 4 dereferenceable(5) %3, i32 noundef %7, i1 noundef zeroext %9)
  %10 = load i64, ptr %3, align 4
  ret i64 %10
}

; Function Attrs: mustprogress nounwind uwtable
define linkonce_odr hidden noundef i32 @_ZNKRSt8optionalIiE8value_orIbEEiOT_(ptr noundef nonnull align 4 dereferenceable(8) %0, ptr noundef nonnull align 1 dereferenceable(1) %1) #0 comdat align 2 {
  %3 = alloca i32, align 4
  %4 = alloca ptr, align 8
  %5 = alloca ptr, align 8
  store ptr %0, ptr %4, align 8
  store ptr %1, ptr %5, align 8
  %6 = load ptr, ptr %4, align 8
  %7 = call noundef zeroext i1 @_ZNKSt19_Optional_base_implIiSt14_Optional_baseIiLb1ELb1EEE13_M_is_engagedEv(ptr noundef nonnull align 1 dereferenceable(1) %6) #12
  br i1 %7, label %8, label %11

8:                                                ; preds = %2
  %9 = call noundef nonnull align 4 dereferenceable(4) ptr @_ZNKSt19_Optional_base_implIiSt14_Optional_baseIiLb1ELb1EEE6_M_getEv(ptr noundef nonnull align 1 dereferenceable(1) %6) #12
  %10 = load i32, ptr %9, align 4
  store i32 %10, ptr %3, align 4
  br label %16

11:                                               ; preds = %2
  %12 = load ptr, ptr %5, align 8
  %13 = load i8, ptr %12, align 1
  %14 = trunc i8 %13 to i1
  %15 = zext i1 %14 to i32
  store i32 %15, ptr %3, align 4
  br label %16

16:                                               ; preds = %11, %8
  %17 = load i32, ptr %3, align 4
  ret i32 %17
}

; Function Attrs: mustprogress nounwind uwtable
define linkonce_odr hidden noundef nonnull align 4 dereferenceable(4) ptr @_ZNRSt8optionalIiEdeEv(ptr noundef nonnull align 4 dereferenceable(8) %0) #0 comdat align 2 {
  %2 = alloca ptr, align 8
  store ptr %0, ptr %2, align 8
  %3 = load ptr, ptr %2, align 8
  %4 = call noundef nonnull align 4 dereferenceable(4) ptr @_ZNSt19_Optional_base_implIiSt14_Optional_baseIiLb1ELb1EEE6_M_getEv(ptr noundef nonnull align 1 dereferenceable(1) %3) #12
  ret ptr %4
}

; Function Attrs: mustprogress nounwind uwtable
define linkonce_odr hidden noundef zeroext i1 @_ZNKSt8optionalIiEcvbEv(ptr noundef nonnull align 4 dereferenceable(8) %0) #0 comdat align 2 {
  %2 = alloca ptr, align 8
  store ptr %0, ptr %2, align 8
  %3 = load ptr, ptr %2, align 8
  %4 = call noundef zeroext i1 @_ZNKSt19_Optional_base_implIiSt14_Optional_baseIiLb1ELb1EEE13_M_is_engagedEv(ptr noundef nonnull align 1 dereferenceable(1) %3) #12
  ret i1 %4
}

; Function Attrs: mustprogress nounwind uwtable
define linkonce_odr hidden void @_ZN4llvm9StringRefC2EPKc(ptr noundef nonnull align 8 dereferenceable(16) %0, ptr noundef %1) unnamed_addr #0 comdat align 2 {
  %3 = alloca ptr, align 8
  %4 = alloca ptr, align 8
  store ptr %0, ptr %3, align 8
  store ptr %1, ptr %4, align 8
  %5 = load ptr, ptr %3, align 8
  %6 = getelementptr inbounds nuw %"class.llvm::StringRef", ptr %5, i32 0, i32 0
  %7 = load ptr, ptr %4, align 8
  store ptr %7, ptr %6, align 8
  %8 = getelementptr inbounds nuw %"class.llvm::StringRef", ptr %5, i32 0, i32 1
  %9 = load ptr, ptr %4, align 8
  %10 = icmp ne ptr %9, null
  br i1 %10, label %11, label %14

11:                                               ; preds = %2
  %12 = load ptr, ptr %4, align 8
  %13 = call noundef i64 @_ZNSt11char_traitsIcE6lengthEPKc(ptr noundef %12)
  br label %15

14:                                               ; preds = %2
  br label %15

15:                                               ; preds = %14, %11
  %16 = phi i64 [ %13, %11 ], [ 0, %14 ]
  store i64 %16, ptr %8, align 8
  ret void
}

; Function Attrs: mustprogress nounwind uwtable
define dso_local { i64, i8 } @_ZN4llvm36getOptionalElementCountLoopAttributeEPKNS_4LoopE(ptr noundef %0) #0 {
  %2 = alloca %"class.std::optional", align 4
  %3 = alloca ptr, align 8
  %4 = alloca %"class.std::optional.50", align 4
  %5 = alloca %"class.llvm::StringRef", align 8
  %6 = alloca %"class.std::optional.50", align 4
  %7 = alloca %"class.llvm::StringRef", align 8
  %8 = alloca %"class.llvm::ElementCount", align 4
  %9 = alloca i8, align 1
  %10 = alloca { i64, i8 }, align 8
  store ptr %0, ptr %3, align 8
  %11 = load ptr, ptr %3, align 8
  call void @_ZN4llvm9StringRefC2EPKc(ptr noundef nonnull align 8 dereferenceable(16) %5, ptr noundef @.str)
  %12 = getelementptr inbounds nuw { ptr, i64 }, ptr %5, i32 0, i32 0
  %13 = load ptr, ptr %12, align 8
  %14 = getelementptr inbounds nuw { ptr, i64 }, ptr %5, i32 0, i32 1
  %15 = load i64, ptr %14, align 8
  %16 = call i64 @_ZN4llvm27getOptionalIntLoopAttributeEPKNS_4LoopENS_9StringRefE(ptr noundef %11, ptr %13, i64 %15)
  %17 = getelementptr inbounds nuw %"class.std::optional.50", ptr %4, i32 0, i32 0
  %18 = getelementptr inbounds nuw %"struct.std::_Optional_base.51", ptr %17, i32 0, i32 0
  store i64 %16, ptr %18, align 4
  %19 = call noundef zeroext i1 @_ZNKSt8optionalIiEcvbEv(ptr noundef nonnull align 4 dereferenceable(8) %4) #12
  br i1 %19, label %20, label %35

20:                                               ; preds = %1
  %21 = load ptr, ptr %3, align 8
  call void @_ZN4llvm9StringRefC2EPKc(ptr noundef nonnull align 8 dereferenceable(16) %7, ptr noundef @.str.1)
  %22 = getelementptr inbounds nuw { ptr, i64 }, ptr %7, i32 0, i32 0
  %23 = load ptr, ptr %22, align 8
  %24 = getelementptr inbounds nuw { ptr, i64 }, ptr %7, i32 0, i32 1
  %25 = load i64, ptr %24, align 8
  %26 = call i64 @_ZN4llvm27getOptionalIntLoopAttributeEPKNS_4LoopENS_9StringRefE(ptr noundef %21, ptr %23, i64 %25)
  %27 = getelementptr inbounds nuw %"class.std::optional.50", ptr %6, i32 0, i32 0
  %28 = getelementptr inbounds nuw %"struct.std::_Optional_base.51", ptr %27, i32 0, i32 0
  store i64 %26, ptr %28, align 4
  %29 = call noundef nonnull align 4 dereferenceable(4) ptr @_ZNRSt8optionalIiEdeEv(ptr noundef nonnull align 4 dereferenceable(8) %4) #12
  %30 = load i32, ptr %29, align 4
  store i8 0, ptr %9, align 1
  %31 = call noundef i32 @_ZNKRSt8optionalIiE8value_orIbEEiOT_(ptr noundef nonnull align 4 dereferenceable(8) %6, ptr noundef nonnull align 1 dereferenceable(1) %9)
  %32 = icmp ne i32 %31, 0
  %33 = call i64 @_ZN4llvm12ElementCount3getEjb(i32 noundef %30, i1 noundef zeroext %32)
  %34 = trunc i64 %33 to i40
  store i40 %34, ptr %8, align 4
  call void @_ZNSt8optionalIN4llvm12ElementCountEEC2IS1_TnNSt9enable_ifIX7__and_vISt6__not_ISt7is_sameIS2_NSt9remove_cvINSt16remove_referenceIT_E4typeEE4typeEEES5_IS6_ISt10in_place_tSD_EESt16is_constructibleIS1_JS9_EESt14is_convertibleIS9_S1_EEEbE4typeELb1EEEOS9_(ptr noundef nonnull align 4 dereferenceable(12) %2, ptr noundef nonnull align 4 dereferenceable(5) %8) #12
  br label %36

35:                                               ; preds = %1
  call void @_ZNSt8optionalIN4llvm12ElementCountEEC2ESt9nullopt_t(ptr noundef nonnull align 4 dereferenceable(12) %2) #12
  br label %36

36:                                               ; preds = %35, %20
  %37 = getelementptr inbounds nuw %"class.std::optional", ptr %2, i32 0, i32 0
  %38 = getelementptr inbounds nuw %"struct.std::_Optional_base", ptr %37, i32 0, i32 0
  call void @llvm.memcpy.p0.p0.i64(ptr align 8 %10, ptr align 4 %38, i64 12, i1 false)
  %39 = load { i64, i8 }, ptr %10, align 8
  ret { i64, i8 } %39
}