; Function Attrs: mustprogress nounwind uwtable
define dso_local { i64, i8 } @_ZN4llvm36getOptionalElementCountLoopAttributeEPKNS_4LoopE(ptr noundef %0) local_unnamed_addr #0 {
  %2 = tail call i64 @_ZN4llvm27getOptionalIntLoopAttributeEPKNS_4LoopENS_9StringRefE(ptr noundef %0, ptr nonnull @.str, i64 25) #17
  %3 = and i64 %2, 4294967296
  %.not = icmp eq i64 %3, 0
  br i1 %.not, label %8, label %4

4:                                                ; preds = %1
  %5 = tail call i64 @_ZN4llvm27getOptionalIntLoopAttributeEPKNS_4LoopENS_9StringRefE(ptr noundef %0, ptr nonnull @.str.1, i64 35) #17
  %6 = and i64 %5, 4294967296
  %.not14 = icmp eq i64 %6, 0
  %7 = and i64 %5, 4294967295
  %.not1516 = icmp eq i64 %7, 0
  %.not15 = or i1 %.not14, %.not1516
  %.sroa.2.0.insert.shift.i = select i1 %.not15, i64 0, i64 4294967296
  %.sroa.0.0.insert.ext.i = and i64 %2, 4294967295
  %.sroa.0.0.insert.insert.i = or disjoint i64 %.sroa.2.0.insert.shift.i, %.sroa.0.0.insert.ext.i
  br label %8

8:                                                ; preds = %1, %4
  %.sroa.012.0 = phi i64 [ %.sroa.0.0.insert.insert.i, %4 ], [ undef, %1 ]
  %.sroa.213.0 = phi i8 [ 1, %4 ], [ 0, %1 ]
  %.fca.0.insert = insertvalue { i64, i8 } poison, i64 %.sroa.012.0, 0
  %.fca.1.insert = insertvalue { i64, i8 } %.fca.0.insert, i8 %.sroa.213.0, 1
  ret { i64, i8 } %.fca.1.insert
}